; Function Attrs: alwaysinline norecurse nounwind uwtable
define internal void @_ZN4ncnnL8rnn_int8ERKNS_3MatERS0_iS2_PKfS2_S2_S5_S3_RKNS_6OptionE.omp_outlined.1(ptr noalias noundef readonly captures(none) %0, ptr noalias readnone captures(none) %1, ptr noundef nonnull readonly align 4 captures(none) dereferenceable(4) %2, ptr noundef nonnull readonly align 8 captures(none) dereferenceable(72) %3, ptr noundef nonnull readonly align 8 captures(none) dereferenceable(72) %4, ptr noundef nonnull readonly align 8 captures(none) dereferenceable(8) %5) #9 personality ptr @__gxx_personality_v0 {
  %7 = alloca i32, align 4
  %8 = alloca i32, align 4
  %9 = alloca i32, align 4
  %10 = alloca i32, align 4
  %11 = load i32, ptr %2, align 4, !tbaa !172
  %12 = icmp sgt i32 %11, 0
  br i1 %12, label %13, label %29

13:                                               ; preds = %6
  %14 = add nsw i32 %11, -1
  call void @llvm.lifetime.start.p0(i64 4, ptr nonnull %7) #10
  store i32 0, ptr %7, align 4, !tbaa !172
  call void @llvm.lifetime.start.p0(i64 4, ptr nonnull %8) #10
  store i32 %14, ptr %8, align 4, !tbaa !172
  call void @llvm.lifetime.start.p0(i64 4, ptr nonnull %9) #10
  store i32 1, ptr %9, align 4, !tbaa !172
  call void @llvm.lifetime.start.p0(i64 4, ptr nonnull %10) #10
  store i32 0, ptr %10, align 4, !tbaa !172
  %15 = load i32, ptr %0, align 4, !tbaa !172
  call void @__kmpc_for_static_init_4(ptr nonnull @1, i32 %15, i32 34, ptr nonnull %10, ptr nonnull %7, ptr nonnull %8, ptr nonnull %9, i32 1, i32 1)
  %16 = load i32, ptr %8, align 4, !tbaa !172
  %17 = call i32 @llvm.smin.i32(i32 %16, i32 %14)
  store i32 %17, ptr %8, align 4, !tbaa !172
  %18 = load i32, ptr %7, align 4, !tbaa !172
  %.not19 = icmp sgt i32 %18, %17
  br i1 %.not19, label %._crit_edge, label %.lr.ph

.lr.ph:                                           ; preds = %13
  %19 = load ptr, ptr %3, align 8, !tbaa !16
  %20 = load ptr, ptr %4, align 8, !tbaa !16
  %21 = load ptr, ptr %5, align 8, !tbaa !170
  %22 = sext i32 %18 to i64
  %23 = add nsw i32 %17, 1
  br label %24

24:                                               ; preds = %.lr.ph, %24
  %indvars.iv = phi i64 [ %22, %.lr.ph ], [ %indvars.iv.next, %24 ]
  %25 = getelementptr inbounds nuw float, ptr %19, i64 %indvars.iv
  %26 = load float, ptr %25, align 4, !tbaa !46
  %27 = getelementptr inbounds nuw float, ptr %20, i64 %indvars.iv
  store float %26, ptr %27, align 4, !tbaa !46
  %28 = getelementptr inbounds float, ptr %21, i64 %indvars.iv
  store float %26, ptr %28, align 4, !tbaa !46
  %indvars.iv.next = add nsw i64 %indvars.iv, 1
  %lftr.wideiv = trunc i64 %indvars.iv.next to i32
  %exitcond.not = icmp eq i32 %23, %lftr.wideiv
  br i1 %exitcond.not, label %._crit_edge, label %24

._crit_edge:                                      ; preds = %24, %13
  call void @__kmpc_for_static_fini(ptr nonnull @1, i32 %15)
  call void @llvm.lifetime.end.p0(i64 4, ptr nonnull %10) #10
  call void @llvm.lifetime.end.p0(i64 4, ptr nonnull %9) #10
  call void @llvm.lifetime.end.p0(i64 4, ptr nonnull %8) #10
  call void @llvm.lifetime.end.p0(i64 4, ptr nonnull %7) #10
  br label %29

29:                                               ; preds = %._crit_edge, %6
  ret void
}